; ModuleID = '23/974.c'
source_filename = "23/974.c"
target datalayout = "e-m:e-p270:32:32-p271:32:32-p272:64:64-i64:64-f80:128-n8:16:32:64-S128"
target triple = "x86_64-pc-linux-gnu"

@.str = private unnamed_addr constant [3 x i8] c"%s\00", align 1
@.str.1 = private unnamed_addr constant [4 x i8] c"%s \00", align 1

; Function Attrs: noinline nounwind uwtable
define dso_local void @main() #0 {
  %1 = alloca i32, align 4
  %2 = alloca [100 x [100 x i8]], align 16
  store i32 0, i32* %1, align 4
  br label %3

3:                                                ; preds = %10, %0
  %4 = load i32, i32* %1, align 4
  %5 = sext i32 %4 to i64
  %6 = getelementptr inbounds [100 x [100 x i8]], [100 x [100 x i8]]* %2, i64 0, i64 %5
  %7 = getelementptr inbounds [100 x i8], [100 x i8]* %6, i64 0, i64 0
  %8 = call i32 (i8*, ...) @__isoc99_scanf(i8* getelementptr inbounds ([3 x i8], [3 x i8]* @.str, i64 0, i64 0), i8* %7)
  %9 = icmp ne i32 %8, -1
  br i1 %9, label %10, label %13

10:                                               ; preds = %3
  %11 = load i32, i32* %1, align 4
  %12 = add nsw i32 %11, 1
  store i32 %12, i32* %1, align 4
  br label %3

13:                                               ; preds = %3
  %14 = load i32, i32* %1, align 4
  %15 = add nsw i32 %14, -1
  store i32 %15, i32* %1, align 4
  br label %16

16:                                               ; preds = %25, %13
  %17 = load i32, i32* %1, align 4
  %18 = icmp sgt i32 %17, 0
  br i1 %18, label %19, label %28

19:                                               ; preds = %16
  %20 = load i32, i32* %1, align 4
  %21 = sext i32 %20 to i64
  %22 = getelementptr inbounds [100 x [100 x i8]], [100 x [100 x i8]]* %2, i64 0, i64 %21
  %23 = getelementptr inbounds [100 x i8], [100 x i8]* %22, i64 0, i64 0
  %24 = call i32 (i8*, ...) @printf(i8* getelementptr inbounds ([4 x i8], [4 x i8]* @.str.1, i64 0, i64 0), i8* %23)
  br label %25

25:                                               ; preds = %19
  %26 = load i32, i32* %1, align 4
  %27 = add nsw i32 %26, -1
  store i32 %27, i32* %1, align 4
  br label %16

28:                                               ; preds = %16
  %29 = getelementptr inbounds [100 x [100 x i8]], [100 x [100 x i8]]* %2, i64 0, i64 0
  %30 = getelementptr inbounds [100 x i8], [100 x i8]* %29, i64 0, i64 0
  %31 = call i32 (i8*, ...) @printf(i8* getelementptr inbounds ([3 x i8], [3 x i8]* @.str, i64 0, i64 0), i8* %30)
  ret void
}

declare dso_local i32 @__isoc99_scanf(i8*, ...) #1

declare dso_local i32 @printf(i8*, ...) #1


!llvm.module.flags = !{!0}
!llvm.ident = !{!1}

!0 = !{i32 1, !"wchar_size", i32 4}
!1 = !{!"clang version 10.0.0-4ubuntu1 "}
